target datalayout = "e-m:e-p270:32:32-p271:32:32-p272:64:64-i64:64-i128:128-f80:128-n8:16:32:64-S128"
target triple = "x86_64-pc-linux-gnu"

%"class.zxing::qrcode::QRCodeReader" = type <{ %"class.zxing::Reader.base", [4 x i8], %"class.zxing::qrcode::Decoder", i32, i32, %"class.zxing::DecodeHints", [7 x i8], %"struct.zxing::qrcode::QBAR_QRCODE_DETECT_INFO", i32, i32, i32, i32, i32, i32, i32, i32, i32, i32, i32, [4 x i8] }>
%"class.zxing::Reader.base" = type { %"class.zxing::Counted.base" }
%"class.zxing::Counted.base" = type <{ ptr, i32 }>
%"class.zxing::qrcode::Decoder" = type <{ i32, float, %"class.zxing::ReedSolomonDecoder", i32, [4 x i8] }>
%"class.zxing::ReedSolomonDecoder" = type { %"class.zxing::Ref" }
%"class.zxing::Ref" = type { ptr }
%"class.zxing::DecodeHints" = type { i8 }
%"struct.zxing::qrcode::QBAR_QRCODE_DETECT_INFO" = type { i32, i32, float, float, i32, float, %"class.std::vector" }
%"class.std::vector" = type { %"struct.std::_Vector_base" }
%"struct.std::_Vector_base" = type { %"struct.std::_Vector_base<zxing::Ref<zxing::ResultPoint>, std::allocator<zxing::Ref<zxing::ResultPoint>>>::_Vector_impl" }
%"struct.std::_Vector_base<zxing::Ref<zxing::ResultPoint>, std::allocator<zxing::Ref<zxing::ResultPoint>>>::_Vector_impl" = type { %"struct.std::_Vector_base<zxing::Ref<zxing::ResultPoint>, std::allocator<zxing::Ref<zxing::ResultPoint>>>::_Vector_impl_data" }
%"struct.std::_Vector_base<zxing::Ref<zxing::ResultPoint>, std::allocator<zxing::Ref<zxing::ResultPoint>>>::_Vector_impl_data" = type { ptr, ptr, ptr }

; Function Attrs: mustprogress nounwind uwtable
define hidden noundef i32 @_ZN5zxing6qrcode12QRCodeReader34getRecommendedImageSizeTypeInteralEv(ptr noundef nonnull align 8 dereferenceable(148) %0) #4 align 2 {
  %2 = alloca ptr, align 8
  store ptr %0, ptr %2, align 8, !tbaa !3
  %3 = load ptr, ptr %2, align 8
  %4 = call i64 @time(ptr noundef null) #2
  %5 = getelementptr inbounds nuw %"class.zxing::qrcode::QRCodeReader", ptr %3, i32 0, i32 8
  %6 = load i32, ptr %5, align 8, !tbaa !31
  %7 = zext i32 %6 to i64
  %8 = sub nsw i64 %4, %7
  %9 = icmp sgt i64 %8, 30
  br i1 %9, label %10, label %12

10:                                               ; preds = %1
  %11 = getelementptr inbounds nuw %"class.zxing::qrcode::QRCodeReader", ptr %3, i32 0, i32 17
  store i32 0, ptr %11, align 4, !tbaa !39
  br label %12

12:                                               ; preds = %10, %1
  %13 = getelementptr inbounds nuw %"class.zxing::qrcode::QRCodeReader", ptr %3, i32 0, i32 17
  %14 = load i32, ptr %13, align 4, !tbaa !39
  ret i32 %14
}