; Function Attrs: mustprogress nounwind uwtable
define hidden noundef i32 @_ZN5zxing6qrcode12QRCodeReader34getRecommendedImageSizeTypeInteralEv(ptr noundef nonnull align 8 captures(none) dereferenceable(148) %0) local_unnamed_addr #7 align 2 {
  %2 = tail call i64 @time(ptr noundef null) #20
  %3 = getelementptr inbounds nuw i8, ptr %0, i64 104
  %4 = load i32, ptr %3, align 8, !tbaa !199
  %5 = zext i32 %4 to i64
  %6 = sub nsw i64 %2, %5
  %7 = icmp sgt i64 %6, 30
  %8 = getelementptr inbounds nuw i8, ptr %0, i64 140
  br i1 %7, label %9, label %._crit_edge

._crit_edge:                                      ; preds = %1
  %.pre = load i32, ptr %8, align 4, !tbaa !200
  br label %10

9:                                                ; preds = %1
  store i32 0, ptr %8, align 4, !tbaa !200
  br label %10

10:                                               ; preds = %._crit_edge, %9
  %11 = phi i32 [ %.pre, %._crit_edge ], [ 0, %9 ]
  ret i32 %11
}